target datalayout = "e-m:e-p270:32:32-p271:32:32-p272:64:64-i64:64-i128:128-f80:128-n8:16:32:64-S128"
target triple = "x86_64-pc-linux-gnu"

%"class.std::__cxx11::basic_string" = type { %"struct.std::__cxx11::basic_string<char>::_Alloc_hider", i64, %union.anon }
%"struct.std::__cxx11::basic_string<char>::_Alloc_hider" = type { ptr }
%union.anon = type { i64, [8 x i8] }
%"class.rocksdb::Status" = type { i8, i8, i8, i8, i8, i8, %"class.std::unique_ptr.5" }
%"class.std::unique_ptr.5" = type { %"struct.std::__uniq_ptr_data.6" }
%"struct.std::__uniq_ptr_data.6" = type { %"class.std::__uniq_ptr_impl.7" }
%"class.std::__uniq_ptr_impl.7" = type { %"class.std::tuple.8" }
%"class.std::tuple.8" = type { %"struct.std::_Tuple_impl.9" }
%"struct.std::_Tuple_impl.9" = type { %"struct.std::_Head_base.12" }
%"struct.std::_Head_base.12" = type { ptr }
%"struct.std::atomic.68" = type { %"struct.std::__atomic_base.69" }
%"struct.std::__atomic_base.69" = type { i8 }
%"class.rocksdb::InternalKey" = type { %"class.std::__cxx11::basic_string" }
%"struct.rocksdb::DBImpl::ManualCompactionState" = type { ptr, i32, i32, i32, %"class.rocksdb::Status", i8, i8, i8, i8, i8, ptr, ptr, ptr, %"class.rocksdb::InternalKey", %"class.rocksdb::InternalKey", %"struct.std::atomic.68", ptr }

; Function Attrs: mustprogress nounwind uwtable
define noundef zeroext i1 @_ZN7rocksdb6DBImpl9MCOverlapEPNS0_21ManualCompactionStateES2_(ptr noundef nonnull align 64 dereferenceable(6868) %0, ptr noundef %1, ptr noundef %2) #4 align 2 {
  %4 = alloca i1, align 1
  %5 = alloca ptr, align 8
  %6 = alloca ptr, align 8
  %7 = alloca ptr, align 8
  store ptr %0, ptr %5, align 8, !tbaa !52
  store ptr %1, ptr %6, align 8, !tbaa !1610
  store ptr %2, ptr %7, align 8, !tbaa !1610
  %8 = load ptr, ptr %6, align 8, !tbaa !1610
  %9 = getelementptr inbounds nuw %"struct.rocksdb::DBImpl::ManualCompactionState", ptr %8, i32 0, i32 8
  %10 = load i8, ptr %9, align 1, !tbaa !1612, !range !66, !noundef !67
  %11 = trunc i8 %10 to i1
  br i1 %11, label %17, label %12

12:                                               ; preds = %3
  %13 = load ptr, ptr %7, align 8, !tbaa !1610
  %14 = getelementptr inbounds nuw %"struct.rocksdb::DBImpl::ManualCompactionState", ptr %13, i32 0, i32 8
  %15 = load i8, ptr %14, align 1, !tbaa !1612, !range !66, !noundef !67
  %16 = trunc i8 %15 to i1
  br i1 %16, label %17, label %18

17:                                               ; preds = %12, %3
  store i1 true, ptr %4, align 1
  br label %28

18:                                               ; preds = %12
  %19 = load ptr, ptr %6, align 8, !tbaa !1610
  %20 = getelementptr inbounds nuw %"struct.rocksdb::DBImpl::ManualCompactionState", ptr %19, i32 0, i32 0
  %21 = load ptr, ptr %20, align 8, !tbaa !1322
  %22 = load ptr, ptr %7, align 8, !tbaa !1610
  %23 = getelementptr inbounds nuw %"struct.rocksdb::DBImpl::ManualCompactionState", ptr %22, i32 0, i32 0
  %24 = load ptr, ptr %23, align 8, !tbaa !1322
  %25 = icmp ne ptr %21, %24
  br i1 %25, label %26, label %27

26:                                               ; preds = %18
  store i1 false, ptr %4, align 1
  br label %28

27:                                               ; preds = %18
  store i1 false, ptr %4, align 1
  br label %28

28:                                               ; preds = %27, %26, %17
  %29 = load i1, ptr %4, align 1
  ret i1 %29
}