; Function Attrs: mustprogress nofree norecurse nosync nounwind willreturn memory(argmem: read) uwtable
define noundef zeroext i1 @_ZN7rocksdb6DBImpl9MCOverlapEPNS0_21ManualCompactionStateES2_(ptr noundef nonnull readnone align 64 captures(none) dereferenceable(6868) %0, ptr noundef readonly captures(none) %1, ptr noundef readonly captures(none) %2) local_unnamed_addr #16 align 2 {
  %4 = getelementptr inbounds nuw i8, ptr %1, i64 43
  %5 = load i8, ptr %4, align 1, !tbaa !1393, !range !41, !noundef !42
  %6 = trunc nuw i8 %5 to i1
  br i1 %6, label %11, label %7

7:                                                ; preds = %3
  %8 = getelementptr inbounds nuw i8, ptr %2, i64 43
  %9 = load i8, ptr %8, align 1, !tbaa !1393, !range !41, !noundef !42
  %10 = trunc nuw i8 %9 to i1
  br label %11

11:                                               ; preds = %7, %3
  %.0 = phi i1 [ true, %3 ], [ %10, %7 ]
  ret i1 %.0
}